target datalayout = "e-m:e-p270:32:32-p271:32:32-p272:64:64-i64:64-i128:128-f80:128-n8:16:32:64-S128"
target triple = "x86_64-pc-linux-gnu"

%"class.duckdb::BaseStatistics" = type { %"struct.duckdb::LogicalType", i8, i8, i64, %union.anon, %"class.duckdb::unique_ptr" }
%"struct.duckdb::LogicalType" = type { i8, i8, %"class.duckdb::shared_ptr" }
%"class.duckdb::shared_ptr" = type { %"class.std::shared_ptr" }
%"class.std::shared_ptr" = type { %"class.std::__shared_ptr" }
%"class.std::__shared_ptr" = type { ptr, %"class.std::__shared_count" }
%"class.std::__shared_count" = type { ptr }
%union.anon = type { %"struct.duckdb::NumericStatsData" }
%"struct.duckdb::NumericStatsData" = type { i8, i8, %"struct.duckdb::NumericValueUnion", %"struct.duckdb::NumericValueUnion" }
%"struct.duckdb::NumericValueUnion" = type { %"union.duckdb::NumericValueUnion::Val" }
%"union.duckdb::NumericValueUnion::Val" = type { %"struct.duckdb::hugeint_t" }
%"struct.duckdb::hugeint_t" = type { i64, i64 }
%"class.duckdb::unique_ptr" = type { %"class.std::unique_ptr" }
%"class.std::unique_ptr" = type { %"struct.std::__uniq_ptr_data" }
%"struct.std::__uniq_ptr_data" = type { %"class.std::__uniq_ptr_impl" }
%"class.std::__uniq_ptr_impl" = type { %"class.std::tuple" }
%"class.std::tuple" = type { %"struct.std::_Tuple_impl" }
%"struct.std::_Tuple_impl" = type { %"struct.std::_Head_base.1" }
%"struct.std::_Head_base.1" = type { ptr }
%"struct.duckdb::StringStatsData" = type { [8 x i8], [8 x i8], i8, i8, i32 }

@_ZN6duckdb14BaseStatisticsC1ENS_11LogicalTypeE = unnamed_addr alias void (ptr, ptr), ptr @_ZN6duckdb14BaseStatisticsC2ENS_11LogicalTypeE
@_ZN6duckdb14BaseStatisticsD1Ev = unnamed_addr alias void (ptr), ptr @_ZN6duckdb14BaseStatisticsD2Ev

; Function Attrs: mustprogress nounwind uwtable
define noundef nonnull align 4 dereferenceable(24) ptr @_ZN6duckdb11StringStats13GetDataUnsafeERNS_14BaseStatisticsE(ptr noundef nonnull align 8 dereferenceable(88) %0) #6 align 2 {
  %2 = alloca ptr, align 8
  store ptr %0, ptr %2, align 8, !tbaa !3
  %3 = load ptr, ptr %2, align 8, !tbaa !3
  %4 = getelementptr inbounds nuw %"class.duckdb::BaseStatistics", ptr %3, i32 0, i32 4
  ret ptr %4
}

; Function Attrs: mustprogress nounwind uwtable
define void @_ZN6duckdb14BaseStatistics17InitializeUnknownEv(ptr noundef nonnull align 8 dereferenceable(88) %0) #6 align 2 {
  %2 = alloca ptr, align 8
  store ptr %0, ptr %2, align 8, !tbaa !3
  %3 = load ptr, ptr %2, align 8
  %4 = getelementptr inbounds nuw %"class.duckdb::BaseStatistics", ptr %3, i32 0, i32 1
  store i8 1, ptr %4, align 8, !tbaa !43
  %5 = getelementptr inbounds nuw %"class.duckdb::BaseStatistics", ptr %3, i32 0, i32 2
  store i8 1, ptr %5, align 1, !tbaa !46
  ret void
}

; Function Attrs: mustprogress uwtable
define void @_ZN6duckdb11StringStats13CreateUnknownENS_11LogicalTypeE(ptr dead_on_unwind noalias writable sret(%"class.duckdb::BaseStatistics") align 8 %0, ptr noundef %1) #4 align 2 personality ptr @__gxx_personality_v0 {
  %3 = alloca ptr, align 8
  %4 = alloca ptr, align 8
  %5 = alloca i1, align 1
  %6 = alloca %"struct.duckdb::LogicalType", align 8
  %7 = alloca ptr, align 8
  %8 = alloca i32, align 4
  %9 = alloca ptr, align 8
  %10 = alloca i64, align 8
  store ptr %0, ptr %3, align 8
  store ptr %1, ptr %4, align 8, !tbaa !10
  store i1 false, ptr %5, align 1
  call void @_ZN6duckdb11LogicalTypeC1EOS0_(ptr noundef nonnull align 8 dereferenceable(24) %6, ptr noundef nonnull align 8 dereferenceable(24) %1) #3
  invoke void @_ZN6duckdb14BaseStatisticsC1ENS_11LogicalTypeE(ptr noundef nonnull align 8 dereferenceable(88) %0, ptr noundef %6)
          to label %11 unwind label %18

11:                                               ; preds = %2
  call void @_ZN6duckdb11LogicalTypeD1Ev(ptr noundef nonnull align 8 dereferenceable(24) %6) #3
  call void @_ZN6duckdb14BaseStatistics17InitializeUnknownEv(ptr noundef nonnull align 8 dereferenceable(88) %0)
  call void @llvm.lifetime.start.p0(i64 8, ptr %9) #3
  %12 = invoke noundef nonnull align 4 dereferenceable(24) ptr @_ZN6duckdb11StringStats13GetDataUnsafeERNS_14BaseStatisticsE(ptr noundef nonnull align 8 dereferenceable(88) %0)
          to label %13 unwind label %22

13:                                               ; preds = %11
  store ptr %12, ptr %9, align 8, !tbaa !49
  call void @llvm.lifetime.start.p0(i64 8, ptr %10) #3
  store i64 0, ptr %10, align 8, !tbaa !40
  br label %14

14:                                               ; preds = %35, %13
  %15 = load i64, ptr %10, align 8, !tbaa !40
  %16 = icmp ult i64 %15, 8
  br i1 %16, label %26, label %17

17:                                               ; preds = %14
  call void @llvm.lifetime.end.p0(i64 8, ptr %10) #3
  br label %38

18:                                               ; preds = %2
  %19 = landingpad { ptr, i32 }
          cleanup
  %20 = extractvalue { ptr, i32 } %19, 0
  store ptr %20, ptr %7, align 8
  %21 = extractvalue { ptr, i32 } %19, 1
  store i32 %21, ptr %8, align 4
  call void @_ZN6duckdb11LogicalTypeD1Ev(ptr noundef nonnull align 8 dereferenceable(24) %6) #3
  br label %48

22:                                               ; preds = %11
  %23 = landingpad { ptr, i32 }
          cleanup
  %24 = extractvalue { ptr, i32 } %23, 0
  store ptr %24, ptr %7, align 8
  %25 = extractvalue { ptr, i32 } %23, 1
  store i32 %25, ptr %8, align 4
  call void @llvm.lifetime.end.p0(i64 8, ptr %9) #3
  call void @_ZN6duckdb14BaseStatisticsD1Ev(ptr noundef nonnull align 8 dereferenceable(88) %0) #3
  br label %48

26:                                               ; preds = %14
  %27 = load ptr, ptr %9, align 8, !tbaa !49
  %28 = getelementptr inbounds nuw %"struct.duckdb::StringStatsData", ptr %27, i32 0, i32 0
  %29 = load i64, ptr %10, align 8, !tbaa !40
  %30 = getelementptr inbounds nuw [8 x i8], ptr %28, i64 0, i64 %29
  store i8 0, ptr %30, align 1, !tbaa !48
  %31 = load ptr, ptr %9, align 8, !tbaa !49
  %32 = getelementptr inbounds nuw %"struct.duckdb::StringStatsData", ptr %31, i32 0, i32 1
  %33 = load i64, ptr %10, align 8, !tbaa !40
  %34 = getelementptr inbounds nuw [8 x i8], ptr %32, i64 0, i64 %33
  store i8 -1, ptr %34, align 1, !tbaa !48
  br label %35

35:                                               ; preds = %26
  %36 = load i64, ptr %10, align 8, !tbaa !40
  %37 = add i64 %36, 1
  store i64 %37, ptr %10, align 8, !tbaa !40
  br label %14, !llvm.loop !57

38:                                               ; preds = %17
  %39 = load ptr, ptr %9, align 8, !tbaa !49
  %40 = getelementptr inbounds nuw %"struct.duckdb::StringStatsData", ptr %39, i32 0, i32 4
  store i32 0, ptr %40, align 4, !tbaa !55
  %41 = load ptr, ptr %9, align 8, !tbaa !49
  %42 = getelementptr inbounds nuw %"struct.duckdb::StringStatsData", ptr %41, i32 0, i32 3
  store i8 0, ptr %42, align 1, !tbaa !54
  %43 = load ptr, ptr %9, align 8, !tbaa !49
  %44 = getelementptr inbounds nuw %"struct.duckdb::StringStatsData", ptr %43, i32 0, i32 2
  store i8 1, ptr %44, align 4, !tbaa !51
  store i1 true, ptr %5, align 1
  call void @llvm.lifetime.end.p0(i64 8, ptr %9) #3
  %45 = load i1, ptr %5, align 1
  br i1 %45, label %47, label %46

46:                                               ; preds = %38
  call void @_ZN6duckdb14BaseStatisticsD1Ev(ptr noundef nonnull align 8 dereferenceable(88) %0) #3
  br label %47

47:                                               ; preds = %46, %38
  ret void

48:                                               ; preds = %22, %18
  %49 = load ptr, ptr %7, align 8
  %50 = load i32, ptr %8, align 4
  %51 = insertvalue { ptr, i32 } poison, ptr %49, 0
  %52 = insertvalue { ptr, i32 } %51, i32 %50, 1
  resume { ptr, i32 } %52
}

; Function Attrs: mustprogress uwtable
define void @_ZN6duckdb14BaseStatistics17CreateUnknownTypeENS_11LogicalTypeE(ptr dead_on_unwind noalias writable sret(%"class.duckdb::BaseStatistics") align 8 %0, ptr noundef %1) #4 align 2 personality ptr @__gxx_personality_v0 {
  %3 = alloca ptr, align 8
  %4 = alloca ptr, align 8
  %5 = alloca %"struct.duckdb::LogicalType", align 8
  %6 = alloca ptr, align 8
  %7 = alloca i32, align 4
  %8 = alloca %"struct.duckdb::LogicalType", align 8
  %9 = alloca %"struct.duckdb::LogicalType", align 8
  %10 = alloca %"struct.duckdb::LogicalType", align 8
  %11 = alloca %"struct.duckdb::LogicalType", align 8
  %12 = alloca %"struct.duckdb::LogicalType", align 8
  store ptr %0, ptr %3, align 8
  store ptr %1, ptr %4, align 8, !tbaa !10
  %13 = call noundef zeroext i8 @_ZN6duckdb14BaseStatistics12GetStatsTypeERKNS_11LogicalTypeE(ptr noundef nonnull align 8 dereferenceable(24) %1)
  switch i8 %13, label %44 [
    i8 0, label %14
    i8 1, label %20
    i8 2, label %26
    i8 3, label %32
    i8 5, label %38
  ]

14:                                               ; preds = %2
  call void @_ZN6duckdb11LogicalTypeC1EOS0_(ptr noundef nonnull align 8 dereferenceable(24) %5, ptr noundef nonnull align 8 dereferenceable(24) %1) #3
  invoke void @_ZN6duckdb12NumericStats13CreateUnknownENS_11LogicalTypeE(ptr dead_on_unwind writable sret(%"class.duckdb::BaseStatistics") align 8 %0, ptr noundef %5)
          to label %15 unwind label %16

15:                                               ; preds = %14
  call void @_ZN6duckdb11LogicalTypeD1Ev(ptr noundef nonnull align 8 dereferenceable(24) %5) #3
  br label %50

16:                                               ; preds = %14
  %17 = landingpad { ptr, i32 }
          cleanup
  %18 = extractvalue { ptr, i32 } %17, 0
  store ptr %18, ptr %6, align 8
  %19 = extractvalue { ptr, i32 } %17, 1
  store i32 %19, ptr %7, align 4
  call void @_ZN6duckdb11LogicalTypeD1Ev(ptr noundef nonnull align 8 dereferenceable(24) %5) #3
  br label %51

20:                                               ; preds = %2
  call void @_ZN6duckdb11LogicalTypeC1EOS0_(ptr noundef nonnull align 8 dereferenceable(24) %8, ptr noundef nonnull align 8 dereferenceable(24) %1) #3
  invoke void @_ZN6duckdb11StringStats13CreateUnknownENS_11LogicalTypeE(ptr dead_on_unwind writable sret(%"class.duckdb::BaseStatistics") align 8 %0, ptr noundef %8)
          to label %21 unwind label %22

21:                                               ; preds = %20
  call void @_ZN6duckdb11LogicalTypeD1Ev(ptr noundef nonnull align 8 dereferenceable(24) %8) #3
  br label %50

22:                                               ; preds = %20
  %23 = landingpad { ptr, i32 }
          cleanup
  %24 = extractvalue { ptr, i32 } %23, 0
  store ptr %24, ptr %6, align 8
  %25 = extractvalue { ptr, i32 } %23, 1
  store i32 %25, ptr %7, align 4
  call void @_ZN6duckdb11LogicalTypeD1Ev(ptr noundef nonnull align 8 dereferenceable(24) %8) #3
  br label %51

26:                                               ; preds = %2
  call void @_ZN6duckdb11LogicalTypeC1EOS0_(ptr noundef nonnull align 8 dereferenceable(24) %9, ptr noundef nonnull align 8 dereferenceable(24) %1) #3
  invoke void @_ZN6duckdb9ListStats13CreateUnknownENS_11LogicalTypeE(ptr dead_on_unwind writable sret(%"class.duckdb::BaseStatistics") align 8 %0, ptr noundef %9)
          to label %27 unwind label %28

27:                                               ; preds = %26
  call void @_ZN6duckdb11LogicalTypeD1Ev(ptr noundef nonnull align 8 dereferenceable(24) %9) #3
  br label %50

28:                                               ; preds = %26
  %29 = landingpad { ptr, i32 }
          cleanup
  %30 = extractvalue { ptr, i32 } %29, 0
  store ptr %30, ptr %6, align 8
  %31 = extractvalue { ptr, i32 } %29, 1
  store i32 %31, ptr %7, align 4
  call void @_ZN6duckdb11LogicalTypeD1Ev(ptr noundef nonnull align 8 dereferenceable(24) %9) #3
  br label %51

32:                                               ; preds = %2
  call void @_ZN6duckdb11LogicalTypeC1EOS0_(ptr noundef nonnull align 8 dereferenceable(24) %10, ptr noundef nonnull align 8 dereferenceable(24) %1) #3
  invoke void @_ZN6duckdb11StructStats13CreateUnknownENS_11LogicalTypeE(ptr dead_on_unwind writable sret(%"class.duckdb::BaseStatistics") align 8 %0, ptr noundef %10)
          to label %33 unwind label %34

33:                                               ; preds = %32
  call void @_ZN6duckdb11LogicalTypeD1Ev(ptr noundef nonnull align 8 dereferenceable(24) %10) #3
  br label %50

34:                                               ; preds = %32
  %35 = landingpad { ptr, i32 }
          cleanup
  %36 = extractvalue { ptr, i32 } %35, 0
  store ptr %36, ptr %6, align 8
  %37 = extractvalue { ptr, i32 } %35, 1
  store i32 %37, ptr %7, align 4
  call void @_ZN6duckdb11LogicalTypeD1Ev(ptr noundef nonnull align 8 dereferenceable(24) %10) #3
  br label %51

38:                                               ; preds = %2
  call void @_ZN6duckdb11LogicalTypeC1EOS0_(ptr noundef nonnull align 8 dereferenceable(24) %11, ptr noundef nonnull align 8 dereferenceable(24) %1) #3
  invoke void @_ZN6duckdb10ArrayStats13CreateUnknownENS_11LogicalTypeE(ptr dead_on_unwind writable sret(%"class.duckdb::BaseStatistics") align 8 %0, ptr noundef %11)
          to label %39 unwind label %40

39:                                               ; preds = %38
  call void @_ZN6duckdb11LogicalTypeD1Ev(ptr noundef nonnull align 8 dereferenceable(24) %11) #3
  br label %50

40:                                               ; preds = %38
  %41 = landingpad { ptr, i32 }
          cleanup
  %42 = extractvalue { ptr, i32 } %41, 0
  store ptr %42, ptr %6, align 8
  %43 = extractvalue { ptr, i32 } %41, 1
  store i32 %43, ptr %7, align 4
  call void @_ZN6duckdb11LogicalTypeD1Ev(ptr noundef nonnull align 8 dereferenceable(24) %11) #3
  br label %51

44:                                               ; preds = %2
  call void @_ZN6duckdb11LogicalTypeC1EOS0_(ptr noundef nonnull align 8 dereferenceable(24) %12, ptr noundef nonnull align 8 dereferenceable(24) %1) #3
  invoke void @_ZN6duckdb14BaseStatisticsC1ENS_11LogicalTypeE(ptr noundef nonnull align 8 dereferenceable(88) %0, ptr noundef %12)
          to label %45 unwind label %46

45:                                               ; preds = %44
  call void @_ZN6duckdb11LogicalTypeD1Ev(ptr noundef nonnull align 8 dereferenceable(24) %12) #3
  br label %50

46:                                               ; preds = %44
  %47 = landingpad { ptr, i32 }
          cleanup
  %48 = extractvalue { ptr, i32 } %47, 0
  store ptr %48, ptr %6, align 8
  %49 = extractvalue { ptr, i32 } %47, 1
  store i32 %49, ptr %7, align 4
  call void @_ZN6duckdb11LogicalTypeD1Ev(ptr noundef nonnull align 8 dereferenceable(24) %12) #3
  br label %51

50:                                               ; preds = %45, %39, %33, %27, %21, %15
  ret void

51:                                               ; preds = %46, %40, %34, %28, %22, %16
  %52 = load ptr, ptr %6, align 8
  %53 = load i32, ptr %7, align 4
  %54 = insertvalue { ptr, i32 } poison, ptr %52, 0
  %55 = insertvalue { ptr, i32 } %54, i32 %53, 1
  resume { ptr, i32 } %55
}