; Function Attrs: mustprogress uwtable
define void @_ZN6duckdb14BaseStatistics17CreateUnknownTypeENS_11LogicalTypeE(ptr dead_on_unwind noalias writable sret(%"class.duckdb::BaseStatistics") align 8 %0, ptr noundef nonnull %1) local_unnamed_addr #3 align 2 personality ptr @__gxx_personality_v0 {
  %3 = alloca %"struct.duckdb::LogicalType", align 8
  %4 = alloca %"struct.duckdb::LogicalType", align 8
  %5 = alloca %"struct.duckdb::LogicalType", align 8
  %6 = alloca %"struct.duckdb::LogicalType", align 8
  %7 = alloca %"struct.duckdb::LogicalType", align 8
  %8 = alloca %"struct.duckdb::LogicalType", align 8
  %9 = alloca %"struct.duckdb::LogicalType", align 8
  %10 = tail call noundef zeroext i8 @_ZN6duckdb14BaseStatistics12GetStatsTypeERKNS_11LogicalTypeE(ptr noundef nonnull align 8 dereferenceable(24) %1)
  switch i8 %10, label %33 [
    i8 0, label %11
    i8 1, label %14
    i8 2, label %24
    i8 3, label %27
    i8 5, label %30
  ]

11:                                               ; preds = %2
  call void @_ZN6duckdb11LogicalTypeC1EOS0_(ptr noundef nonnull align 8 dereferenceable(24) %4, ptr noundef nonnull align 8 dereferenceable(24) %1) #29
  invoke void @_ZN6duckdb12NumericStats13CreateUnknownENS_11LogicalTypeE(ptr dead_on_unwind writable sret(%"class.duckdb::BaseStatistics") align 8 %0, ptr noundef nonnull %4)
          to label %36 unwind label %12

12:                                               ; preds = %11
  %13 = landingpad { ptr, i32 }
          cleanup
  br label %37

14:                                               ; preds = %2
  call void @_ZN6duckdb11LogicalTypeC1EOS0_(ptr noundef nonnull align 8 dereferenceable(24) %5, ptr noundef nonnull align 8 dereferenceable(24) %1) #29
  call void @llvm.experimental.noalias.scope.decl(metadata !60)
  call void @llvm.lifetime.start.p0(i64 24, ptr nonnull %3)
  call void @_ZN6duckdb11LogicalTypeC1EOS0_(ptr noundef nonnull align 8 dereferenceable(24) %3, ptr noundef nonnull align 8 dereferenceable(24) %5) #29, !noalias !60
  invoke void @_ZN6duckdb14BaseStatisticsC1ENS_11LogicalTypeE(ptr noundef nonnull align 8 dereferenceable(88) %0, ptr noundef nonnull %3)
          to label %16 unwind label %.body

.body:                                            ; preds = %14
  %15 = landingpad { ptr, i32 }
          cleanup
  call void @_ZN6duckdb11LogicalTypeD1Ev(ptr noundef nonnull align 8 dereferenceable(24) %3) #29
  br label %37

16:                                               ; preds = %14
  call void @_ZN6duckdb11LogicalTypeD1Ev(ptr noundef nonnull align 8 dereferenceable(24) %3) #29
  %17 = getelementptr inbounds nuw i8, ptr %0, i64 24
  store i8 1, ptr %17, align 8, !tbaa !49, !alias.scope !60
  %18 = getelementptr inbounds nuw i8, ptr %0, i64 25
  store i8 1, ptr %18, align 1, !tbaa !52, !alias.scope !60
  %19 = getelementptr inbounds nuw i8, ptr %0, i64 40
  %20 = getelementptr inbounds nuw i8, ptr %0, i64 48
  store i64 0, ptr %19, align 8, !alias.scope !60
  store i64 -1, ptr %20, align 8, !alias.scope !60
  %21 = getelementptr inbounds nuw i8, ptr %0, i64 60
  store i32 0, ptr %21, align 4, !tbaa !58, !alias.scope !60
  %22 = getelementptr inbounds nuw i8, ptr %0, i64 57
  store i8 0, ptr %22, align 1, !tbaa !57, !alias.scope !60
  %23 = getelementptr inbounds nuw i8, ptr %0, i64 56
  store i8 1, ptr %23, align 8, !tbaa !55, !alias.scope !60
  call void @llvm.lifetime.end.p0(i64 24, ptr nonnull %3)
  br label %36

24:                                               ; preds = %2
  call void @_ZN6duckdb11LogicalTypeC1EOS0_(ptr noundef nonnull align 8 dereferenceable(24) %6, ptr noundef nonnull align 8 dereferenceable(24) %1) #29
  invoke void @_ZN6duckdb9ListStats13CreateUnknownENS_11LogicalTypeE(ptr dead_on_unwind writable sret(%"class.duckdb::BaseStatistics") align 8 %0, ptr noundef nonnull %6)
          to label %36 unwind label %25

25:                                               ; preds = %24
  %26 = landingpad { ptr, i32 }
          cleanup
  br label %37

27:                                               ; preds = %2
  call void @_ZN6duckdb11LogicalTypeC1EOS0_(ptr noundef nonnull align 8 dereferenceable(24) %7, ptr noundef nonnull align 8 dereferenceable(24) %1) #29
  invoke void @_ZN6duckdb11StructStats13CreateUnknownENS_11LogicalTypeE(ptr dead_on_unwind writable sret(%"class.duckdb::BaseStatistics") align 8 %0, ptr noundef nonnull %7)
          to label %36 unwind label %28

28:                                               ; preds = %27
  %29 = landingpad { ptr, i32 }
          cleanup
  br label %37

30:                                               ; preds = %2
  call void @_ZN6duckdb11LogicalTypeC1EOS0_(ptr noundef nonnull align 8 dereferenceable(24) %8, ptr noundef nonnull align 8 dereferenceable(24) %1) #29
  invoke void @_ZN6duckdb10ArrayStats13CreateUnknownENS_11LogicalTypeE(ptr dead_on_unwind writable sret(%"class.duckdb::BaseStatistics") align 8 %0, ptr noundef nonnull %8)
          to label %36 unwind label %31

31:                                               ; preds = %30
  %32 = landingpad { ptr, i32 }
          cleanup
  br label %37

33:                                               ; preds = %2
  call void @_ZN6duckdb11LogicalTypeC1EOS0_(ptr noundef nonnull align 8 dereferenceable(24) %9, ptr noundef nonnull align 8 dereferenceable(24) %1) #29
  invoke void @_ZN6duckdb14BaseStatisticsC1ENS_11LogicalTypeE(ptr noundef nonnull align 8 dereferenceable(88) %0, ptr noundef nonnull %9)
          to label %36 unwind label %34

34:                                               ; preds = %33
  %35 = landingpad { ptr, i32 }
          cleanup
  br label %37

36:                                               ; preds = %33, %30, %27, %24, %11, %16
  %.sink = phi ptr [ %5, %16 ], [ %4, %11 ], [ %6, %24 ], [ %7, %27 ], [ %8, %30 ], [ %9, %33 ]
  call void @_ZN6duckdb11LogicalTypeD1Ev(ptr noundef nonnull align 8 dereferenceable(24) %.sink) #29
  ret void

37:                                               ; preds = %34, %31, %28, %25, %.body, %12
  %.sink3 = phi ptr [ %9, %34 ], [ %8, %31 ], [ %7, %28 ], [ %6, %25 ], [ %5, %.body ], [ %4, %12 ]
  %.pn = phi { ptr, i32 } [ %35, %34 ], [ %32, %31 ], [ %29, %28 ], [ %26, %25 ], [ %15, %.body ], [ %13, %12 ]
  call void @_ZN6duckdb11LogicalTypeD1Ev(ptr noundef nonnull align 8 dereferenceable(24) %.sink3) #29
  resume { ptr, i32 } %.pn
}